; Function Attrs: mustprogress nofree norecurse nosync nounwind willreturn memory(argmem: read) uwtable
define hidden { ptr, i64 } @_ZNK3ue28NGHolder16getSpecialVertexEj(ptr noundef nonnull readonly align 8 captures(none) dereferenceable(136) %0, i32 noundef %1) local_unnamed_addr #4 align 2 {
  switch i32 %1, label %19 [
    i32 0, label %3
    i32 1, label %7
    i32 2, label %11
    i32 3, label %15
  ]

3:                                                ; preds = %2
  %4 = getelementptr inbounds nuw i8, ptr %0, i64 72
  %.sroa.0.0.copyload = load ptr, ptr %4, align 8
  %.sroa.6.0..sroa_idx = getelementptr inbounds nuw i8, ptr %0, i64 80
  %.sroa.6.0.copyload = load i64, ptr %.sroa.6.0..sroa_idx, align 8
  %5 = insertvalue { ptr, i64 } poison, ptr %.sroa.0.0.copyload, 0
  %6 = insertvalue { ptr, i64 } %5, i64 %.sroa.6.0.copyload, 1
  br label %19

7:                                                ; preds = %2
  %8 = getelementptr inbounds nuw i8, ptr %0, i64 88
  %.sroa.0.0.copyload1 = load ptr, ptr %8, align 8
  %.sroa.6.0..sroa_idx4 = getelementptr inbounds nuw i8, ptr %0, i64 96
  %.sroa.6.0.copyload5 = load i64, ptr %.sroa.6.0..sroa_idx4, align 8
  %9 = insertvalue { ptr, i64 } poison, ptr %.sroa.0.0.copyload1, 0
  %10 = insertvalue { ptr, i64 } %9, i64 %.sroa.6.0.copyload5, 1
  br label %19

11:                                               ; preds = %2
  %12 = getelementptr inbounds nuw i8, ptr %0, i64 104
  %.sroa.0.0.copyload2 = load ptr, ptr %12, align 8
  %.sroa.6.0..sroa_idx6 = getelementptr inbounds nuw i8, ptr %0, i64 112
  %.sroa.6.0.copyload7 = load i64, ptr %.sroa.6.0..sroa_idx6, align 8
  %13 = insertvalue { ptr, i64 } poison, ptr %.sroa.0.0.copyload2, 0
  %14 = insertvalue { ptr, i64 } %13, i64 %.sroa.6.0.copyload7, 1
  br label %19

15:                                               ; preds = %2
  %16 = getelementptr inbounds nuw i8, ptr %0, i64 120
  %.sroa.0.0.copyload3 = load ptr, ptr %16, align 8
  %.sroa.6.0..sroa_idx8 = getelementptr inbounds nuw i8, ptr %0, i64 128
  %.sroa.6.0.copyload9 = load i64, ptr %.sroa.6.0..sroa_idx8, align 8
  %17 = insertvalue { ptr, i64 } poison, ptr %.sroa.0.0.copyload3, 0
  %18 = insertvalue { ptr, i64 } %17, i64 %.sroa.6.0.copyload9, 1
  br label %19

19:                                               ; preds = %2, %15, %11, %7, %3
  %.fca.1.insert.merged = phi { ptr, i64 } [ %18, %15 ], [ %14, %11 ], [ %10, %7 ], [ %6, %3 ], [ zeroinitializer, %2 ]
  ret { ptr, i64 } %.fca.1.insert.merged
}